target datalayout = "e-m:e-p270:32:32-p271:32:32-p272:64:64-i64:64-i128:128-f80:128-n8:16:32:64-S128"
target triple = "x86_64-pc-linux-gnu"

%struct._scdf_ctx = type { ptr, ptr, ptr, ptr, ptr, ptr, ptr, i32, i32, i32, %struct.anon }
%struct.anon = type { ptr, ptr, ptr }
%struct._zend_ssa = type { %struct._zend_cfg, i32, i32, ptr, ptr, ptr, ptr }
%struct._zend_cfg = type { i32, i32, ptr, ptr, ptr, i32 }
%struct._zend_ssa_block = type { ptr }
%struct._zend_ssa_phi = type { ptr, i32, %union._zend_ssa_pi_constraint, i32, i32, i32, i8, ptr, ptr, ptr }
%union._zend_ssa_pi_constraint = type { %struct._zend_ssa_range_constraint }
%struct._zend_ssa_range_constraint = type { %struct._zend_ssa_range, i32, i32, i32, i32, i32 }
%struct._zend_ssa_range = type { i64, i64, i8, i8 }
%struct._zend_basic_block = type { ptr, i32, i32, i32, i32, i32, i32, i32, i32, i32, i32, i32, [2 x i32] }

; Function Attrs: inlinehint nounwind uwtable
define internal void @zend_bitset_excl(ptr noundef %0, i32 noundef %1) #2 {
  %3 = alloca ptr, align 8
  %4 = alloca i32, align 4
  store ptr %0, ptr %3, align 8, !tbaa !49
  store i32 %1, ptr %4, align 4, !tbaa !9
  %5 = load i32, ptr %4, align 4, !tbaa !9
  %6 = zext i32 %5 to i64
  %7 = and i64 %6, 63
  %8 = shl i64 1, %7
  %9 = xor i64 %8, -1
  %10 = load ptr, ptr %3, align 8, !tbaa !49
  %11 = load i32, ptr %4, align 4, !tbaa !9
  %12 = lshr i32 %11, 6
  %13 = zext i32 %12 to i64
  %14 = getelementptr inbounds nuw i64, ptr %10, i64 %13
  %15 = load i64, ptr %14, align 8, !tbaa !50
  %16 = and i64 %15, %9
  store i64 %16, ptr %14, align 8, !tbaa !50
  ret void
}

; Function Attrs: inlinehint nounwind uwtable
define internal void @zend_bitset_incl(ptr noundef %0, i32 noundef %1) #2 {
  %3 = alloca ptr, align 8
  %4 = alloca i32, align 4
  store ptr %0, ptr %3, align 8, !tbaa !49
  store i32 %1, ptr %4, align 4, !tbaa !9
  %5 = load i32, ptr %4, align 4, !tbaa !9
  %6 = zext i32 %5 to i64
  %7 = and i64 %6, 63
  %8 = shl i64 1, %7
  %9 = load ptr, ptr %3, align 8, !tbaa !49
  %10 = load i32, ptr %4, align 4, !tbaa !9
  %11 = lshr i32 %10, 6
  %12 = zext i32 %11 to i64
  %13 = getelementptr inbounds nuw i64, ptr %9, i64 %12
  %14 = load i64, ptr %13, align 8, !tbaa !50
  %15 = or i64 %14, %8
  store i64 %15, ptr %13, align 8, !tbaa !50
  ret void
}

; Function Attrs: inlinehint nounwind uwtable
define internal zeroext i1 @zend_bitset_in(ptr noundef %0, i32 noundef %1) #2 {
  %3 = alloca ptr, align 8
  %4 = alloca i32, align 4
  store ptr %0, ptr %3, align 8, !tbaa !49
  store i32 %1, ptr %4, align 4, !tbaa !9
  %5 = load ptr, ptr %3, align 8, !tbaa !49
  %6 = load i32, ptr %4, align 4, !tbaa !9
  %7 = zext i32 %6 to i64
  %8 = udiv i64 %7, 64
  %9 = getelementptr inbounds nuw i64, ptr %5, i64 %8
  %10 = load i64, ptr %9, align 8, !tbaa !50
  %11 = load i32, ptr %4, align 4, !tbaa !9
  %12 = zext i32 %11 to i64
  %13 = and i64 %12, 63
  %14 = lshr i64 %10, %13
  %15 = and i64 %14, 1
  %16 = icmp ne i64 %15, 0
  ret i1 %16
}

; Function Attrs: inlinehint nounwind uwtable
define internal i32 @scdf_edge(ptr noundef %0, i32 noundef %1, i32 noundef %2) #2 {
  %4 = alloca i32, align 4
  %5 = alloca ptr, align 8
  %6 = alloca i32, align 4
  %7 = alloca i32, align 4
  %8 = alloca ptr, align 8
  %9 = alloca i32, align 4
  %10 = alloca i32, align 4
  %11 = alloca i32, align 4
  store ptr %0, ptr %5, align 8, !tbaa !41
  store i32 %1, ptr %6, align 4, !tbaa !9
  store i32 %2, ptr %7, align 4, !tbaa !9
  call void @llvm.lifetime.start.p0(i64 8, ptr %8) #13
  %12 = load ptr, ptr %5, align 8, !tbaa !41
  %13 = getelementptr inbounds nuw %struct._zend_cfg, ptr %12, i32 0, i32 2
  %14 = load ptr, ptr %13, align 8, !tbaa !43
  %15 = load i32, ptr %7, align 4, !tbaa !9
  %16 = sext i32 %15 to i64
  %17 = getelementptr inbounds %struct._zend_basic_block, ptr %14, i64 %16
  store ptr %17, ptr %8, align 8, !tbaa !44
  call void @llvm.lifetime.start.p0(i64 4, ptr %9) #13
  store i32 0, ptr %9, align 4, !tbaa !9
  br label %18

18:                                               ; preds = %45, %3
  %19 = load i32, ptr %9, align 4, !tbaa !9
  %20 = load ptr, ptr %8, align 8, !tbaa !44
  %21 = getelementptr inbounds nuw %struct._zend_basic_block, ptr %20, i32 0, i32 5
  %22 = load i32, ptr %21, align 8, !tbaa !45
  %23 = icmp slt i32 %19, %22
  br i1 %23, label %24, label %48

24:                                               ; preds = %18
  call void @llvm.lifetime.start.p0(i64 4, ptr %10) #13
  %25 = load ptr, ptr %8, align 8, !tbaa !44
  %26 = getelementptr inbounds nuw %struct._zend_basic_block, ptr %25, i32 0, i32 6
  %27 = load i32, ptr %26, align 4, !tbaa !47
  %28 = load i32, ptr %9, align 4, !tbaa !9
  %29 = add nsw i32 %27, %28
  store i32 %29, ptr %10, align 4, !tbaa !9
  %30 = load ptr, ptr %5, align 8, !tbaa !41
  %31 = getelementptr inbounds nuw %struct._zend_cfg, ptr %30, i32 0, i32 3
  %32 = load ptr, ptr %31, align 8, !tbaa !48
  %33 = load i32, ptr %10, align 4, !tbaa !9
  %34 = zext i32 %33 to i64
  %35 = getelementptr inbounds nuw i32, ptr %32, i64 %34
  %36 = load i32, ptr %35, align 4, !tbaa !9
  %37 = load i32, ptr %6, align 4, !tbaa !9
  %38 = icmp eq i32 %36, %37
  br i1 %38, label %39, label %41

39:                                               ; preds = %24
  %40 = load i32, ptr %10, align 4, !tbaa !9
  store i32 %40, ptr %4, align 4
  store i32 1, ptr %11, align 4
  br label %42

41:                                               ; preds = %24
  store i32 0, ptr %11, align 4
  br label %42

42:                                               ; preds = %41, %39
  call void @llvm.lifetime.end.p0(i64 4, ptr %10) #13
  %43 = load i32, ptr %11, align 4
  switch i32 %43, label %49 [
    i32 0, label %44
  ]

44:                                               ; preds = %42
  br label %45

45:                                               ; preds = %44
  %46 = load i32, ptr %9, align 4, !tbaa !9
  %47 = add nsw i32 %46, 1
  store i32 %47, ptr %9, align 4, !tbaa !9
  br label %18

48:                                               ; preds = %18
  unreachable

49:                                               ; preds = %42
  call void @llvm.lifetime.end.p0(i64 4, ptr %9) #13
  call void @llvm.lifetime.end.p0(i64 8, ptr %8) #13
  %50 = load i32, ptr %4, align 4
  ret i32 %50
}

; Function Attrs: nounwind uwtable
define hidden void @scdf_mark_edge_feasible(ptr noundef %0, i32 noundef %1, i32 noundef %2) #0 {
  %4 = alloca ptr, align 8
  %5 = alloca i32, align 4
  %6 = alloca i32, align 4
  %7 = alloca i32, align 4
  %8 = alloca i32, align 4
  %9 = alloca ptr, align 8
  %10 = alloca ptr, align 8
  store ptr %0, ptr %4, align 8, !tbaa !4
  store i32 %1, ptr %5, align 4, !tbaa !9
  store i32 %2, ptr %6, align 4, !tbaa !9
  call void @llvm.lifetime.start.p0(i64 4, ptr %7) #13
  %11 = load ptr, ptr %4, align 8, !tbaa !4
  %12 = getelementptr inbounds nuw %struct._scdf_ctx, ptr %11, i32 0, i32 1
  %13 = load ptr, ptr %12, align 8, !tbaa !11
  %14 = getelementptr inbounds nuw %struct._zend_ssa, ptr %13, i32 0, i32 0
  %15 = load i32, ptr %5, align 4, !tbaa !9
  %16 = load i32, ptr %6, align 4, !tbaa !9
  %17 = call i32 @scdf_edge(ptr noundef %14, i32 noundef %15, i32 noundef %16)
  store i32 %17, ptr %7, align 4, !tbaa !9
  %18 = load ptr, ptr %4, align 8, !tbaa !4
  %19 = getelementptr inbounds nuw %struct._scdf_ctx, ptr %18, i32 0, i32 6
  %20 = load ptr, ptr %19, align 8, !tbaa !17
  %21 = load i32, ptr %7, align 4, !tbaa !9
  %22 = call zeroext i1 @zend_bitset_in(ptr noundef %20, i32 noundef %21)
  br i1 %22, label %23, label %24

23:                                               ; preds = %3
  store i32 1, ptr %8, align 4
  br label %80

24:                                               ; preds = %3
  %25 = load ptr, ptr %4, align 8, !tbaa !4
  %26 = getelementptr inbounds nuw %struct._scdf_ctx, ptr %25, i32 0, i32 6
  %27 = load ptr, ptr %26, align 8, !tbaa !17
  %28 = load i32, ptr %7, align 4, !tbaa !9
  call void @zend_bitset_incl(ptr noundef %27, i32 noundef %28)
  %29 = load ptr, ptr %4, align 8, !tbaa !4
  %30 = getelementptr inbounds nuw %struct._scdf_ctx, ptr %29, i32 0, i32 5
  %31 = load ptr, ptr %30, align 8, !tbaa !18
  %32 = load i32, ptr %6, align 4, !tbaa !9
  %33 = call zeroext i1 @zend_bitset_in(ptr noundef %31, i32 noundef %32)
  br i1 %33, label %46, label %34

34:                                               ; preds = %24
  %35 = load ptr, ptr %4, align 8, !tbaa !4
  %36 = getelementptr inbounds nuw %struct._scdf_ctx, ptr %35, i32 0, i32 4
  %37 = load ptr, ptr %36, align 8, !tbaa !19
  %38 = load i32, ptr %6, align 4, !tbaa !9
  %39 = call zeroext i1 @zend_bitset_in(ptr noundef %37, i32 noundef %38)
  br i1 %39, label %41, label %40

40:                                               ; preds = %34
  br label %41

41:                                               ; preds = %40, %34
  %42 = load ptr, ptr %4, align 8, !tbaa !4
  %43 = getelementptr inbounds nuw %struct._scdf_ctx, ptr %42, i32 0, i32 4
  %44 = load ptr, ptr %43, align 8, !tbaa !19
  %45 = load i32, ptr %6, align 4, !tbaa !9
  call void @zend_bitset_incl(ptr noundef %44, i32 noundef %45)
  br label %79

46:                                               ; preds = %24
  call void @llvm.lifetime.start.p0(i64 8, ptr %9) #13
  %47 = load ptr, ptr %4, align 8, !tbaa !4
  %48 = getelementptr inbounds nuw %struct._scdf_ctx, ptr %47, i32 0, i32 1
  %49 = load ptr, ptr %48, align 8, !tbaa !11
  %50 = getelementptr inbounds nuw %struct._zend_ssa, ptr %49, i32 0, i32 3
  %51 = load ptr, ptr %50, align 8, !tbaa !20
  %52 = load i32, ptr %6, align 4, !tbaa !9
  %53 = sext i32 %52 to i64
  %54 = getelementptr inbounds %struct._zend_ssa_block, ptr %51, i64 %53
  store ptr %54, ptr %9, align 8, !tbaa !29
  call void @llvm.lifetime.start.p0(i64 8, ptr %10) #13
  %55 = load ptr, ptr %9, align 8, !tbaa !29
  %56 = getelementptr inbounds nuw %struct._zend_ssa_block, ptr %55, i32 0, i32 0
  %57 = load ptr, ptr %56, align 8, !tbaa !30
  store ptr %57, ptr %10, align 8, !tbaa !33
  br label %58

58:                                               ; preds = %74, %46
  %59 = load ptr, ptr %10, align 8, !tbaa !33
  %60 = icmp ne ptr %59, null
  br i1 %60, label %61, label %78

61:                                               ; preds = %58
  %62 = load ptr, ptr %4, align 8, !tbaa !4
  %63 = getelementptr inbounds nuw %struct._scdf_ctx, ptr %62, i32 0, i32 3
  %64 = load ptr, ptr %63, align 8, !tbaa !34
  %65 = load ptr, ptr %10, align 8, !tbaa !33
  %66 = getelementptr inbounds nuw %struct._zend_ssa_phi, ptr %65, i32 0, i32 4
  %67 = load i32, ptr %66, align 4, !tbaa !35
  call void @zend_bitset_excl(ptr noundef %64, i32 noundef %67)
  %68 = load ptr, ptr %4, align 8, !tbaa !4
  %69 = getelementptr inbounds nuw %struct._scdf_ctx, ptr %68, i32 0, i32 10
  %70 = getelementptr inbounds nuw %struct.anon, ptr %69, i32 0, i32 1
  %71 = load ptr, ptr %70, align 8, !tbaa !39
  %72 = load ptr, ptr %4, align 8, !tbaa !4
  %73 = load ptr, ptr %10, align 8, !tbaa !33
  call void %71(ptr noundef %72, ptr noundef %73)
  br label %74

74:                                               ; preds = %61
  %75 = load ptr, ptr %10, align 8, !tbaa !33
  %76 = getelementptr inbounds nuw %struct._zend_ssa_phi, ptr %75, i32 0, i32 0
  %77 = load ptr, ptr %76, align 8, !tbaa !40
  store ptr %77, ptr %10, align 8, !tbaa !33
  br label %58

78:                                               ; preds = %58
  call void @llvm.lifetime.end.p0(i64 8, ptr %10) #13
  call void @llvm.lifetime.end.p0(i64 8, ptr %9) #13
  br label %79

79:                                               ; preds = %78, %41
  store i32 0, ptr %8, align 4
  br label %80

80:                                               ; preds = %79, %23
  call void @llvm.lifetime.end.p0(i64 4, ptr %7) #13
  %81 = load i32, ptr %8, align 4
  switch i32 %81, label %83 [
    i32 0, label %82
    i32 1, label %82
  ]

82:                                               ; preds = %80, %80
  ret void

83:                                               ; preds = %80
  unreachable
}