; Function Attrs: nounwind uwtable
define hidden void @scdf_mark_edge_feasible(ptr noundef %0, i32 noundef %1, i32 noundef %2) local_unnamed_addr #0 {
  %4 = getelementptr inbounds nuw i8, ptr %0, i64 8
  %5 = load ptr, ptr %4, align 8, !tbaa !4
  %6 = getelementptr inbounds nuw i8, ptr %5, i64 8
  %7 = load ptr, ptr %6, align 8, !tbaa !14
  %8 = sext i32 %2 to i64
  %9 = getelementptr inbounds %struct._zend_basic_block, ptr %7, i64 %8
  %10 = getelementptr inbounds nuw i8, ptr %9, i64 24
  %11 = load i32, ptr %10, align 8, !tbaa !18
  %12 = getelementptr inbounds nuw i8, ptr %9, i64 28
  %13 = load i32, ptr %12, align 4, !tbaa !20
  %14 = getelementptr inbounds nuw i8, ptr %5, i64 16
  %15 = load ptr, ptr %14, align 8, !tbaa !21
  %16 = sext i32 %11 to i64
  br label %17

17:                                               ; preds = %17, %3
  %indvars.iv.i = phi i64 [ %indvars.iv.next.i, %17 ], [ 0, %3 ]
  %18 = icmp slt i64 %indvars.iv.i, %16
  tail call void @llvm.assume(i1 %18)
  %19 = trunc i64 %indvars.iv.i to i32
  %20 = add i32 %13, %19
  %21 = zext i32 %20 to i64
  %22 = getelementptr inbounds nuw i32, ptr %15, i64 %21
  %23 = load i32, ptr %22, align 4, !tbaa !22
  %.not.i = icmp eq i32 %23, %1
  %indvars.iv.next.i = add nuw nsw i64 %indvars.iv.i, 1
  br i1 %.not.i, label %scdf_edge.exit, label %17

scdf_edge.exit:                                   ; preds = %17
  %24 = getelementptr inbounds nuw i8, ptr %0, i64 48
  %25 = load ptr, ptr %24, align 8, !tbaa !23
  %26 = lshr i64 %21, 6
  %27 = getelementptr inbounds nuw i64, ptr %25, i64 %26
  %28 = load i64, ptr %27, align 8, !tbaa !24
  %29 = and i64 %21, 63
  %30 = shl nuw i64 1, %29
  %31 = and i64 %28, %30
  %.not22 = icmp eq i64 %31, 0
  br i1 %.not22, label %32, label %.loopexit

32:                                               ; preds = %scdf_edge.exit
  %33 = and i32 %20, 63
  %34 = zext nneg i32 %33 to i64
  %35 = shl nuw i64 1, %34
  %36 = lshr i32 %20, 6
  %37 = zext nneg i32 %36 to i64
  %38 = getelementptr inbounds nuw i64, ptr %25, i64 %37
  %39 = load i64, ptr %38, align 8, !tbaa !24
  %40 = or i64 %39, %35
  store i64 %40, ptr %38, align 8, !tbaa !24
  %41 = getelementptr inbounds nuw i8, ptr %0, i64 40
  %42 = load ptr, ptr %41, align 8, !tbaa !26
  %43 = zext i32 %2 to i64
  %44 = lshr i64 %43, 6
  %45 = getelementptr inbounds nuw i64, ptr %42, i64 %44
  %46 = load i64, ptr %45, align 8, !tbaa !24
  %47 = and i64 %43, 63
  %48 = shl nuw i64 1, %47
  %49 = and i64 %46, %48
  %.not23 = icmp eq i64 %49, 0
  br i1 %.not23, label %50, label %61

50:                                               ; preds = %32
  %51 = getelementptr inbounds nuw i8, ptr %0, i64 32
  %52 = load ptr, ptr %51, align 8, !tbaa !27
  %53 = and i32 %2, 63
  %54 = zext nneg i32 %53 to i64
  %55 = shl nuw i64 1, %54
  %56 = lshr i32 %2, 6
  %57 = zext nneg i32 %56 to i64
  %58 = getelementptr inbounds nuw i64, ptr %52, i64 %57
  %59 = load i64, ptr %58, align 8, !tbaa !24
  %60 = or i64 %59, %55
  store i64 %60, ptr %58, align 8, !tbaa !24
  br label %.loopexit

61:                                               ; preds = %32
  %62 = getelementptr inbounds nuw i8, ptr %5, i64 48
  %63 = load ptr, ptr %62, align 8, !tbaa !28
  %64 = getelementptr inbounds %struct._zend_ssa_block, ptr %63, i64 %8
  %.025 = load ptr, ptr %64, align 8, !tbaa !34
  %.not26 = icmp eq ptr %.025, null
  br i1 %.not26, label %.loopexit, label %.lr.ph

.lr.ph:                                           ; preds = %61
  %65 = getelementptr inbounds nuw i8, ptr %0, i64 24
  %66 = getelementptr inbounds nuw i8, ptr %0, i64 80
  br label %67

67:                                               ; preds = %.lr.ph, %67
  %.027 = phi ptr [ %.025, %.lr.ph ], [ %.0, %67 ]
  %68 = load ptr, ptr %65, align 8, !tbaa !36
  %69 = getelementptr inbounds nuw i8, ptr %.027, i64 68
  %70 = load i32, ptr %69, align 4, !tbaa !37
  %71 = and i32 %70, 63
  %72 = zext nneg i32 %71 to i64
  %73 = shl nuw i64 1, %72
  %74 = xor i64 %73, -1
  %75 = lshr i32 %70, 6
  %76 = zext nneg i32 %75 to i64
  %77 = getelementptr inbounds nuw i64, ptr %68, i64 %76
  %78 = load i64, ptr %77, align 8, !tbaa !24
  %79 = and i64 %78, %74
  store i64 %79, ptr %77, align 8, !tbaa !24
  %80 = load ptr, ptr %66, align 8, !tbaa !41
  tail call void %80(ptr noundef nonnull %0, ptr noundef nonnull %.027) #8
  %.0 = load ptr, ptr %.027, align 8, !tbaa !34
  %.not = icmp eq ptr %.0, null
  br i1 %.not, label %.loopexit, label %67

.loopexit:                                        ; preds = %67, %61, %50, %scdf_edge.exit
  ret void
}